target datalayout = "e-m:e-p270:32:32-p271:32:32-p272:64:64-i64:64-i128:128-f80:128-n8:16:32:64-S128"
target triple = "x86_64-pc-linux-gnu"

%struct.Aig_Obj_t_ = type { %union.anon, ptr, ptr, i64, i32, i32, %union.anon.0 }
%union.anon = type { ptr }
%union.anon.0 = type { ptr }
%struct.Raig_Man_t_ = type { ptr, i32, i32, i32, i32, i32, i32, i32, ptr, ptr, ptr, ptr, ptr, ptr, ptr, ptr, i32, i32, i32, i32 }
%struct.Vec_Int_t_ = type { i32, i32, ptr }

; Function Attrs: nounwind uwtable
define internal void @Vec_IntGrow(ptr noundef %0, i32 noundef %1) #0 {
  %3 = alloca ptr, align 8
  %4 = alloca i32, align 4
  store ptr %0, ptr %3, align 8
  store i32 %1, ptr %4, align 4
  %5 = load ptr, ptr %3, align 8
  %6 = getelementptr inbounds %struct.Vec_Int_t_, ptr %5, i32 0, i32 0
  %7 = load i32, ptr %6, align 8
  %8 = load i32, ptr %4, align 4
  %9 = icmp sge i32 %7, %8
  br i1 %9, label %10, label %11

10:                                               ; preds = %2
  br label %36

11:                                               ; preds = %2
  %12 = load ptr, ptr %3, align 8
  %13 = getelementptr inbounds %struct.Vec_Int_t_, ptr %12, i32 0, i32 2
  %14 = load ptr, ptr %13, align 8
  %15 = icmp ne ptr %14, null
  br i1 %15, label %16, label %24

16:                                               ; preds = %11
  %17 = load ptr, ptr %3, align 8
  %18 = getelementptr inbounds %struct.Vec_Int_t_, ptr %17, i32 0, i32 2
  %19 = load ptr, ptr %18, align 8
  %20 = load i32, ptr %4, align 4
  %21 = sext i32 %20 to i64
  %22 = mul i64 4, %21
  %23 = call ptr @realloc(ptr noundef %19, i64 noundef %22) #14
  br label %29

24:                                               ; preds = %11
  %25 = load i32, ptr %4, align 4
  %26 = sext i32 %25 to i64
  %27 = mul i64 4, %26
  %28 = call noalias ptr @malloc(i64 noundef %27) #11
  br label %29

29:                                               ; preds = %24, %16
  %30 = phi ptr [ %23, %16 ], [ %28, %24 ]
  %31 = load ptr, ptr %3, align 8
  %32 = getelementptr inbounds %struct.Vec_Int_t_, ptr %31, i32 0, i32 2
  store ptr %30, ptr %32, align 8
  %33 = load i32, ptr %4, align 4
  %34 = load ptr, ptr %3, align 8
  %35 = getelementptr inbounds %struct.Vec_Int_t_, ptr %34, i32 0, i32 0
  store i32 %33, ptr %35, align 8
  br label %36

36:                                               ; preds = %29, %10
  ret void
}

; Function Attrs: nounwind uwtable
define internal i32 @Aig_IsComplement(ptr noundef %0) #0 {
  %2 = alloca ptr, align 8
  store ptr %0, ptr %2, align 8
  %3 = load ptr, ptr %2, align 8
  %4 = ptrtoint ptr %3 to i64
  %5 = and i64 %4, 1
  %6 = trunc i64 %5 to i32
  ret i32 %6
}

; Function Attrs: nounwind uwtable
define internal ptr @Aig_Regular(ptr noundef %0) #0 {
  %2 = alloca ptr, align 8
  store ptr %0, ptr %2, align 8
  %3 = load ptr, ptr %2, align 8
  %4 = ptrtoint ptr %3 to i64
  %5 = and i64 %4, -2
  %6 = inttoptr i64 %5 to ptr
  ret ptr %6
}

; Function Attrs: nounwind uwtable
define internal i32 @Aig_ObjRefs(ptr noundef %0) #0 {
  %2 = alloca ptr, align 8
  store ptr %0, ptr %2, align 8
  %3 = load ptr, ptr %2, align 8
  %4 = getelementptr inbounds %struct.Aig_Obj_t_, ptr %3, i32 0, i32 3
  %5 = load i64, ptr %4, align 8
  %6 = lshr i64 %5, 6
  %7 = and i64 %6, 67108863
  %8 = trunc i64 %7 to i32
  ret i32 %8
}

; Function Attrs: nounwind uwtable
define internal void @Vec_IntPush(ptr noundef %0, i32 noundef %1) #0 {
  %3 = alloca ptr, align 8
  %4 = alloca i32, align 4
  store ptr %0, ptr %3, align 8
  store i32 %1, ptr %4, align 4
  %5 = load ptr, ptr %3, align 8
  %6 = getelementptr inbounds %struct.Vec_Int_t_, ptr %5, i32 0, i32 1
  %7 = load i32, ptr %6, align 4
  %8 = load ptr, ptr %3, align 8
  %9 = getelementptr inbounds %struct.Vec_Int_t_, ptr %8, i32 0, i32 0
  %10 = load i32, ptr %9, align 8
  %11 = icmp eq i32 %7, %10
  br i1 %11, label %12, label %26

12:                                               ; preds = %2
  %13 = load ptr, ptr %3, align 8
  %14 = getelementptr inbounds %struct.Vec_Int_t_, ptr %13, i32 0, i32 0
  %15 = load i32, ptr %14, align 8
  %16 = icmp slt i32 %15, 16
  br i1 %16, label %17, label %19

17:                                               ; preds = %12
  %18 = load ptr, ptr %3, align 8
  call void @Vec_IntGrow(ptr noundef %18, i32 noundef 16)
  br label %25

19:                                               ; preds = %12
  %20 = load ptr, ptr %3, align 8
  %21 = load ptr, ptr %3, align 8
  %22 = getelementptr inbounds %struct.Vec_Int_t_, ptr %21, i32 0, i32 0
  %23 = load i32, ptr %22, align 8
  %24 = mul nsw i32 2, %23
  call void @Vec_IntGrow(ptr noundef %20, i32 noundef %24)
  br label %25

25:                                               ; preds = %19, %17
  br label %26

26:                                               ; preds = %25, %2
  %27 = load i32, ptr %4, align 4
  %28 = load ptr, ptr %3, align 8
  %29 = getelementptr inbounds %struct.Vec_Int_t_, ptr %28, i32 0, i32 2
  %30 = load ptr, ptr %29, align 8
  %31 = load ptr, ptr %3, align 8
  %32 = getelementptr inbounds %struct.Vec_Int_t_, ptr %31, i32 0, i32 1
  %33 = load i32, ptr %32, align 4
  %34 = add nsw i32 %33, 1
  store i32 %34, ptr %32, align 4
  %35 = sext i32 %33 to i64
  %36 = getelementptr inbounds i32, ptr %30, i64 %35
  store i32 %27, ptr %36, align 4
  ret void
}

; Function Attrs: nounwind uwtable
define internal i32 @Aig_ObjCioId(ptr noundef %0) #0 {
  %2 = alloca ptr, align 8
  store ptr %0, ptr %2, align 8
  %3 = load ptr, ptr %2, align 8
  %4 = getelementptr inbounds %struct.Aig_Obj_t_, ptr %3, i32 0, i32 0
  %5 = load i32, ptr %4, align 8
  ret i32 %5
}

; Function Attrs: nounwind uwtable
define internal i32 @Aig_ObjIsCo(ptr noundef %0) #0 {
  %2 = alloca ptr, align 8
  store ptr %0, ptr %2, align 8
  %3 = load ptr, ptr %2, align 8
  %4 = getelementptr inbounds %struct.Aig_Obj_t_, ptr %3, i32 0, i32 3
  %5 = load i64, ptr %4, align 8
  %6 = and i64 %5, 7
  %7 = trunc i64 %6 to i32
  %8 = icmp eq i32 %7, 3
  %9 = zext i1 %8 to i32
  ret i32 %9
}

; Function Attrs: nounwind uwtable
define internal i32 @Aig_ObjFaninC1(ptr noundef %0) #0 {
  %2 = alloca ptr, align 8
  store ptr %0, ptr %2, align 8
  %3 = load ptr, ptr %2, align 8
  %4 = getelementptr inbounds %struct.Aig_Obj_t_, ptr %3, i32 0, i32 2
  %5 = load ptr, ptr %4, align 8
  %6 = call i32 @Aig_IsComplement(ptr noundef %5)
  ret i32 %6
}

; Function Attrs: nounwind uwtable
define internal ptr @Aig_ObjFanin1(ptr noundef %0) #0 {
  %2 = alloca ptr, align 8
  store ptr %0, ptr %2, align 8
  %3 = load ptr, ptr %2, align 8
  %4 = getelementptr inbounds %struct.Aig_Obj_t_, ptr %3, i32 0, i32 2
  %5 = load ptr, ptr %4, align 8
  %6 = call ptr @Aig_Regular(ptr noundef %5)
  ret ptr %6
}

; Function Attrs: nounwind uwtable
define internal i32 @Aig_ObjFaninC0(ptr noundef %0) #0 {
  %2 = alloca ptr, align 8
  store ptr %0, ptr %2, align 8
  %3 = load ptr, ptr %2, align 8
  %4 = getelementptr inbounds %struct.Aig_Obj_t_, ptr %3, i32 0, i32 1
  %5 = load ptr, ptr %4, align 8
  %6 = call i32 @Aig_IsComplement(ptr noundef %5)
  ret i32 %6
}

; Function Attrs: nounwind uwtable
define internal ptr @Aig_ObjFanin0(ptr noundef %0) #0 {
  %2 = alloca ptr, align 8
  store ptr %0, ptr %2, align 8
  %3 = load ptr, ptr %2, align 8
  %4 = getelementptr inbounds %struct.Aig_Obj_t_, ptr %3, i32 0, i32 1
  %5 = load ptr, ptr %4, align 8
  %6 = call ptr @Aig_Regular(ptr noundef %5)
  ret ptr %6
}

; Function Attrs: nounwind uwtable
define internal i32 @Aig_ObjIsNode(ptr noundef %0) #0 {
  %2 = alloca ptr, align 8
  store ptr %0, ptr %2, align 8
  %3 = load ptr, ptr %2, align 8
  %4 = getelementptr inbounds %struct.Aig_Obj_t_, ptr %3, i32 0, i32 3
  %5 = load i64, ptr %4, align 8
  %6 = and i64 %5, 7
  %7 = trunc i64 %6 to i32
  %8 = icmp eq i32 %7, 5
  br i1 %8, label %16, label %9

9:                                                ; preds = %1
  %10 = load ptr, ptr %2, align 8
  %11 = getelementptr inbounds %struct.Aig_Obj_t_, ptr %10, i32 0, i32 3
  %12 = load i64, ptr %11, align 8
  %13 = and i64 %12, 7
  %14 = trunc i64 %13 to i32
  %15 = icmp eq i32 %14, 6
  br label %16

16:                                               ; preds = %9, %1
  %17 = phi i1 [ true, %1 ], [ %15, %9 ]
  %18 = zext i1 %17 to i32
  ret i32 %18
}

; Function Attrs: nounwind uwtable
define i32 @Raig_ManCreate_rec(ptr noundef %0, ptr noundef %1) #0 {
  %3 = alloca i32, align 4
  %4 = alloca ptr, align 8
  %5 = alloca ptr, align 8
  %6 = alloca i32, align 4
  %7 = alloca i32, align 4
  store ptr %0, ptr %4, align 8
  store ptr %1, ptr %5, align 8
  %8 = load ptr, ptr %5, align 8
  %9 = getelementptr inbounds %struct.Aig_Obj_t_, ptr %8, i32 0, i32 6
  %10 = load i32, ptr %9, align 8
  %11 = icmp ne i32 %10, 0
  br i1 %11, label %12, label %16

12:                                               ; preds = %2
  %13 = load ptr, ptr %5, align 8
  %14 = getelementptr inbounds %struct.Aig_Obj_t_, ptr %13, i32 0, i32 6
  %15 = load i32, ptr %14, align 8
  store i32 %15, ptr %3, align 4
  br label %95

16:                                               ; preds = %2
  %17 = load ptr, ptr %5, align 8
  %18 = call i32 @Aig_ObjIsNode(ptr noundef %17)
  %19 = icmp ne i32 %18, 0
  br i1 %19, label %20, label %39

20:                                               ; preds = %16
  %21 = load ptr, ptr %4, align 8
  %22 = load ptr, ptr %5, align 8
  %23 = call ptr @Aig_ObjFanin0(ptr noundef %22)
  %24 = call i32 @Raig_ManCreate_rec(ptr noundef %21, ptr noundef %23)
  store i32 %24, ptr %6, align 4
  %25 = load i32, ptr %6, align 4
  %26 = shl i32 %25, 1
  %27 = load ptr, ptr %5, align 8
  %28 = call i32 @Aig_ObjFaninC0(ptr noundef %27)
  %29 = or i32 %26, %28
  store i32 %29, ptr %6, align 4
  %30 = load ptr, ptr %4, align 8
  %31 = load ptr, ptr %5, align 8
  %32 = call ptr @Aig_ObjFanin1(ptr noundef %31)
  %33 = call i32 @Raig_ManCreate_rec(ptr noundef %30, ptr noundef %32)
  store i32 %33, ptr %7, align 4
  %34 = load i32, ptr %7, align 4
  %35 = shl i32 %34, 1
  %36 = load ptr, ptr %5, align 8
  %37 = call i32 @Aig_ObjFaninC1(ptr noundef %36)
  %38 = or i32 %35, %37
  store i32 %38, ptr %7, align 4
  br label %60

39:                                               ; preds = %16
  %40 = load ptr, ptr %5, align 8
  %41 = call i32 @Aig_ObjIsCo(ptr noundef %40)
  %42 = icmp ne i32 %41, 0
  br i1 %42, label %43, label %53

43:                                               ; preds = %39
  %44 = load ptr, ptr %4, align 8
  %45 = load ptr, ptr %5, align 8
  %46 = call ptr @Aig_ObjFanin0(ptr noundef %45)
  %47 = call i32 @Raig_ManCreate_rec(ptr noundef %44, ptr noundef %46)
  store i32 %47, ptr %6, align 4
  %48 = load i32, ptr %6, align 4
  %49 = shl i32 %48, 1
  %50 = load ptr, ptr %5, align 8
  %51 = call i32 @Aig_ObjFaninC0(ptr noundef %50)
  %52 = or i32 %49, %51
  store i32 %52, ptr %6, align 4
  store i32 0, ptr %7, align 4
  br label %59

53:                                               ; preds = %39
  store i32 0, ptr %7, align 4
  store i32 0, ptr %6, align 4
  %54 = load ptr, ptr %4, align 8
  %55 = getelementptr inbounds %struct.Raig_Man_t_, ptr %54, i32 0, i32 10
  %56 = load ptr, ptr %55, align 8
  %57 = load ptr, ptr %5, align 8
  %58 = call i32 @Aig_ObjCioId(ptr noundef %57)
  call void @Vec_IntPush(ptr noundef %56, i32 noundef %58)
  br label %59

59:                                               ; preds = %53, %43
  br label %60

60:                                               ; preds = %59, %20
  %61 = load i32, ptr %6, align 4
  %62 = load ptr, ptr %4, align 8
  %63 = getelementptr inbounds %struct.Raig_Man_t_, ptr %62, i32 0, i32 8
  %64 = load ptr, ptr %63, align 8
  %65 = load ptr, ptr %4, align 8
  %66 = getelementptr inbounds %struct.Raig_Man_t_, ptr %65, i32 0, i32 7
  %67 = load i32, ptr %66, align 8
  %68 = sext i32 %67 to i64
  %69 = getelementptr inbounds i32, ptr %64, i64 %68
  store i32 %61, ptr %69, align 4
  %70 = load i32, ptr %7, align 4
  %71 = load ptr, ptr %4, align 8
  %72 = getelementptr inbounds %struct.Raig_Man_t_, ptr %71, i32 0, i32 9
  %73 = load ptr, ptr %72, align 8
  %74 = load ptr, ptr %4, align 8
  %75 = getelementptr inbounds %struct.Raig_Man_t_, ptr %74, i32 0, i32 7
  %76 = load i32, ptr %75, align 8
  %77 = sext i32 %76 to i64
  %78 = getelementptr inbounds i32, ptr %73, i64 %77
  store i32 %70, ptr %78, align 4
  %79 = load ptr, ptr %5, align 8
  %80 = call i32 @Aig_ObjRefs(ptr noundef %79)
  %81 = load ptr, ptr %4, align 8
  %82 = getelementptr inbounds %struct.Raig_Man_t_, ptr %81, i32 0, i32 13
  %83 = load ptr, ptr %82, align 8
  %84 = load ptr, ptr %4, align 8
  %85 = getelementptr inbounds %struct.Raig_Man_t_, ptr %84, i32 0, i32 7
  %86 = load i32, ptr %85, align 8
  %87 = sext i32 %86 to i64
  %88 = getelementptr inbounds i32, ptr %83, i64 %87
  store i32 %80, ptr %88, align 4
  %89 = load ptr, ptr %4, align 8
  %90 = getelementptr inbounds %struct.Raig_Man_t_, ptr %89, i32 0, i32 7
  %91 = load i32, ptr %90, align 8
  %92 = add nsw i32 %91, 1
  store i32 %92, ptr %90, align 8
  %93 = load ptr, ptr %5, align 8
  %94 = getelementptr inbounds %struct.Aig_Obj_t_, ptr %93, i32 0, i32 6
  store i32 %91, ptr %94, align 8
  store i32 %91, ptr %3, align 4
  br label %95

95:                                               ; preds = %60, %12
  %96 = load i32, ptr %3, align 4
  ret i32 %96
}