; Function Attrs: nounwind uwtable
define i32 @Raig_ManCreate_rec(ptr noundef %0, ptr noundef captures(none) %1) local_unnamed_addr #1 {
  %3 = getelementptr inbounds nuw i8, ptr %1, i64 40
  %4 = load i32, ptr %3, align 8
  %.not = icmp eq i32 %4, 0
  br i1 %.not, label %5, label %99

5:                                                ; preds = %2
  %6 = getelementptr i8, ptr %1, i64 24
  %.val = load i64, ptr %6, align 8
  %7 = trunc i64 %.val to i32
  %8 = and i32 %7, 7
  %9 = add nsw i32 %8, -7
  %narrow.i = icmp ult i32 %9, -2
  br i1 %narrow.i, label %31, label %10

10:                                               ; preds = %5
  %11 = getelementptr i8, ptr %1, i64 8
  %.val34 = load ptr, ptr %11, align 8
  %12 = ptrtoint ptr %.val34 to i64
  %13 = and i64 %12, -2
  %14 = inttoptr i64 %13 to ptr
  %15 = tail call i32 @Raig_ManCreate_rec(ptr noundef %0, ptr noundef %14)
  %16 = shl i32 %15, 1
  %.val36 = load ptr, ptr %11, align 8
  %17 = ptrtoint ptr %.val36 to i64
  %18 = trunc i64 %17 to i32
  %19 = and i32 %18, 1
  %20 = or disjoint i32 %19, %16
  %21 = getelementptr i8, ptr %1, i64 16
  %.val38 = load ptr, ptr %21, align 8
  %22 = ptrtoint ptr %.val38 to i64
  %23 = and i64 %22, -2
  %24 = inttoptr i64 %23 to ptr
  %25 = tail call i32 @Raig_ManCreate_rec(ptr noundef %0, ptr noundef %24)
  %26 = shl i32 %25, 1
  %.val39 = load ptr, ptr %21, align 8
  %27 = ptrtoint ptr %.val39 to i64
  %28 = trunc i64 %27 to i32
  %29 = and i32 %28, 1
  %30 = or disjoint i32 %29, %26
  br label %78

31:                                               ; preds = %5
  %32 = and i64 %.val, 7
  %.not43 = icmp eq i64 %32, 3
  br i1 %.not43, label %33, label %44

33:                                               ; preds = %31
  %34 = getelementptr i8, ptr %1, i64 8
  %.val35 = load ptr, ptr %34, align 8
  %35 = ptrtoint ptr %.val35 to i64
  %36 = and i64 %35, -2
  %37 = inttoptr i64 %36 to ptr
  %38 = tail call i32 @Raig_ManCreate_rec(ptr noundef %0, ptr noundef %37)
  %39 = shl i32 %38, 1
  %.val37 = load ptr, ptr %34, align 8
  %40 = ptrtoint ptr %.val37 to i64
  %41 = trunc i64 %40 to i32
  %42 = and i32 %41, 1
  %43 = or disjoint i32 %42, %39
  br label %78

44:                                               ; preds = %31
  %45 = getelementptr inbounds nuw i8, ptr %0, i64 56
  %46 = load ptr, ptr %45, align 8
  %.val41 = load i32, ptr %1, align 8
  %47 = getelementptr inbounds nuw i8, ptr %46, i64 4
  %48 = load i32, ptr %47, align 4
  %49 = load i32, ptr %46, align 8
  %50 = icmp eq i32 %48, %49
  br i1 %50, label %51, label %.Vec_IntGrow.exit10_crit_edge.i

.Vec_IntGrow.exit10_crit_edge.i:                  ; preds = %44
  %.phi.trans.insert.i = getelementptr inbounds nuw i8, ptr %46, i64 8
  %.pre.i = load ptr, ptr %.phi.trans.insert.i, align 8
  br label %Vec_IntPush.exit

51:                                               ; preds = %44
  %52 = icmp slt i32 %48, 16
  br i1 %52, label %53, label %61

53:                                               ; preds = %51
  %54 = getelementptr inbounds nuw i8, ptr %46, i64 8
  %55 = load ptr, ptr %54, align 8
  %.not9.i.i = icmp eq ptr %55, null
  br i1 %.not9.i.i, label %58, label %56

56:                                               ; preds = %53
  %57 = tail call dereferenceable_or_null(64) ptr @realloc(ptr noundef nonnull %55, i64 noundef 64) #16
  br label %Vec_IntGrow.exit.i

58:                                               ; preds = %53
  %59 = tail call noalias dereferenceable_or_null(64) ptr @malloc(i64 noundef 64) #17
  br label %Vec_IntGrow.exit.i

Vec_IntGrow.exit.i:                               ; preds = %58, %56
  %60 = phi ptr [ %57, %56 ], [ %59, %58 ]
  store ptr %60, ptr %54, align 8
  store i32 16, ptr %46, align 8
  br label %Vec_IntPush.exit

61:                                               ; preds = %51
  %62 = shl nuw nsw i32 %48, 1
  %63 = getelementptr inbounds nuw i8, ptr %46, i64 8
  %64 = load ptr, ptr %63, align 8
  %.not9.i9.i = icmp eq ptr %64, null
  %65 = zext nneg i32 %62 to i64
  %66 = shl nuw nsw i64 %65, 2
  br i1 %.not9.i9.i, label %69, label %67

67:                                               ; preds = %61
  %68 = tail call ptr @realloc(ptr noundef nonnull %64, i64 noundef %66) #16
  br label %71

69:                                               ; preds = %61
  %70 = tail call noalias ptr @malloc(i64 noundef %66) #17
  br label %71

71:                                               ; preds = %69, %67
  %72 = phi ptr [ %68, %67 ], [ %70, %69 ]
  store ptr %72, ptr %63, align 8
  store i32 %62, ptr %46, align 8
  br label %Vec_IntPush.exit

Vec_IntPush.exit:                                 ; preds = %.Vec_IntGrow.exit10_crit_edge.i, %Vec_IntGrow.exit.i, %71
  %73 = phi ptr [ %.pre.i, %.Vec_IntGrow.exit10_crit_edge.i ], [ %72, %71 ], [ %60, %Vec_IntGrow.exit.i ]
  %74 = load i32, ptr %47, align 4
  %75 = add nsw i32 %74, 1
  store i32 %75, ptr %47, align 4
  %76 = sext i32 %74 to i64
  %77 = getelementptr inbounds i32, ptr %73, i64 %76
  store i32 %.val41, ptr %77, align 4
  br label %78

78:                                               ; preds = %33, %Vec_IntPush.exit, %10
  %.029 = phi i32 [ %20, %10 ], [ %43, %33 ], [ 0, %Vec_IntPush.exit ]
  %.0 = phi i32 [ %30, %10 ], [ 0, %33 ], [ 0, %Vec_IntPush.exit ]
  %79 = getelementptr inbounds nuw i8, ptr %0, i64 40
  %80 = load ptr, ptr %79, align 8
  %81 = getelementptr inbounds nuw i8, ptr %0, i64 32
  %82 = load i32, ptr %81, align 8
  %83 = sext i32 %82 to i64
  %84 = getelementptr inbounds i32, ptr %80, i64 %83
  store i32 %.029, ptr %84, align 4
  %85 = getelementptr inbounds nuw i8, ptr %0, i64 48
  %86 = load ptr, ptr %85, align 8
  %87 = load i32, ptr %81, align 8
  %88 = sext i32 %87 to i64
  %89 = getelementptr inbounds i32, ptr %86, i64 %88
  store i32 %.0, ptr %89, align 4
  %.val42 = load i64, ptr %6, align 8
  %90 = trunc i64 %.val42 to i32
  %91 = lshr i32 %90, 6
  %92 = getelementptr inbounds nuw i8, ptr %0, i64 80
  %93 = load ptr, ptr %92, align 8
  %94 = load i32, ptr %81, align 8
  %95 = sext i32 %94 to i64
  %96 = getelementptr inbounds i32, ptr %93, i64 %95
  store i32 %91, ptr %96, align 4
  %97 = load i32, ptr %81, align 8
  %98 = add nsw i32 %97, 1
  store i32 %98, ptr %81, align 8
  store i32 %97, ptr %3, align 8
  br label %99

99:                                               ; preds = %2, %78
  %.030 = phi i32 [ %97, %78 ], [ %4, %2 ]
  ret i32 %.030
}